target datalayout = "e-m:e-p270:32:32-p271:32:32-p272:64:64-i64:64-i128:128-f80:128-n8:16:32:64-S128"
target triple = "x86_64-pc-linux-gnu"

%struct._packet_info = type { ptr, ptr, i32, i32, %struct.nstime_t, %struct.nstime_t, %struct.nstime_t, i32, ptr, ptr, ptr, ptr, %struct._address, %struct._address, %struct._address, %struct._address, %struct._address, %struct._address, i32, ptr, i32, %struct.anon, i32, i32, i32, i32, ptr, i32, ptr, ptr, i16, i16, i32, i32, i16, i32, i32, ptr, ptr, ptr, i8, i8, i16, i16, i16, i32, i16, i16, ptr, ptr, ptr, ptr, ptr, i32 }
%struct.nstime_t = type { i64, i32 }
%struct._address = type { i32, i32, ptr, ptr }
%struct.anon = type { i8, [3 x i8] }

@hf_offset = internal global i32 0, align 4
@hf_relative_string = internal global i32 0, align 4
@ett_RELSTR_ARRAY = internal global i32 0, align 4
@.str.755 = private unnamed_addr constant [1 x i8] zeroinitializer, align 1
@.str.1222 = private unnamed_addr constant [5 x i8] c"NULL\00", align 1
@.str.1223 = private unnamed_addr constant [3 x i8] c"%s\00", align 1

; Function Attrs: nounwind uwtable
define internal i32 @dissect_spoolss_uint16uni(ptr noundef %0, i32 noundef %1, ptr noundef %2, ptr noundef %3, ptr noundef %4, ptr noundef %5, i32 noundef %6) #0 {
  %8 = alloca i32, align 4
  %9 = alloca ptr, align 8
  %10 = alloca i32, align 4
  %11 = alloca ptr, align 8
  %12 = alloca ptr, align 8
  %13 = alloca ptr, align 8
  %14 = alloca ptr, align 8
  %15 = alloca i32, align 4
  %16 = alloca i32, align 4
  %17 = alloca i32, align 4
  %18 = alloca ptr, align 8
  store ptr %0, ptr %9, align 8
  store i32 %1, ptr %10, align 4
  store ptr %2, ptr %11, align 8
  store ptr %3, ptr %12, align 8
  store ptr %4, ptr %13, align 8
  store ptr %5, ptr %14, align 8
  store i32 %6, ptr %15, align 4
  %19 = load i32, ptr %10, align 4
  %20 = srem i32 %19, 2
  %21 = icmp ne i32 %20, 0
  br i1 %21, label %22, label %28

22:                                               ; preds = %7
  %23 = load i32, ptr %10, align 4
  %24 = srem i32 %23, 2
  %25 = sub i32 2, %24
  %26 = load i32, ptr %10, align 4
  %27 = add i32 %26, %25
  store i32 %27, ptr %10, align 4
  br label %28

28:                                               ; preds = %22, %7
  %29 = load ptr, ptr %9, align 8
  %30 = load i32, ptr %10, align 4
  %31 = call i32 @tvb_reported_length_remaining(ptr noundef %29, i32 noundef %30)
  store i32 %31, ptr %17, align 4
  %32 = load i32, ptr %17, align 4
  %33 = icmp sle i32 %32, 0
  br i1 %33, label %34, label %45

34:                                               ; preds = %28
  %35 = load ptr, ptr %14, align 8
  %36 = icmp ne ptr %35, null
  br i1 %36, label %37, label %43

37:                                               ; preds = %34
  %38 = load ptr, ptr %11, align 8
  %39 = getelementptr inbounds %struct._packet_info, ptr %38, i32 0, i32 50
  %40 = load ptr, ptr %39, align 8
  %41 = call noalias ptr @wmem_strdup(ptr noundef %40, ptr noundef @.str.755)
  %42 = load ptr, ptr %14, align 8
  store ptr %41, ptr %42, align 8
  br label %43

43:                                               ; preds = %37, %34
  %44 = load i32, ptr %10, align 4
  store i32 %44, ptr %8, align 4
  br label %75

45:                                               ; preds = %28
  %46 = load ptr, ptr %11, align 8
  %47 = getelementptr inbounds %struct._packet_info, ptr %46, i32 0, i32 50
  %48 = load ptr, ptr %47, align 8
  %49 = load ptr, ptr %9, align 8
  %50 = load i32, ptr %10, align 4
  %51 = load i32, ptr %17, align 4
  %52 = call ptr @tvb_get_string_enc(ptr noundef %48, ptr noundef %49, i32 noundef %50, i32 noundef %51, i32 noundef -2147483644)
  store ptr %52, ptr %18, align 8
  %53 = load ptr, ptr %18, align 8
  %54 = call i64 @strlen(ptr noundef %53) #4
  %55 = trunc i64 %54 to i32
  store i32 %55, ptr %16, align 4
  %56 = load ptr, ptr %12, align 8
  %57 = load i32, ptr %15, align 4
  %58 = load ptr, ptr %9, align 8
  %59 = load i32, ptr %10, align 4
  %60 = load i32, ptr %16, align 4
  %61 = mul i32 %60, 2
  %62 = load ptr, ptr %18, align 8
  %63 = call ptr @proto_tree_add_string(ptr noundef %56, i32 noundef %57, ptr noundef %58, i32 noundef %59, i32 noundef %61, ptr noundef %62)
  %64 = load ptr, ptr %14, align 8
  %65 = icmp ne ptr %64, null
  br i1 %65, label %66, label %69

66:                                               ; preds = %45
  %67 = load ptr, ptr %18, align 8
  %68 = load ptr, ptr %14, align 8
  store ptr %67, ptr %68, align 8
  br label %69

69:                                               ; preds = %66, %45
  %70 = load i32, ptr %10, align 4
  %71 = load i32, ptr %16, align 4
  %72 = add i32 %71, 1
  %73 = mul i32 %72, 2
  %74 = add i32 %70, %73
  store i32 %74, ptr %8, align 4
  br label %75

75:                                               ; preds = %69, %43
  %76 = load i32, ptr %8, align 4
  ret i32 %76
}

; Function Attrs: nounwind uwtable
define internal i32 @dissect_spoolss_relstrarray(ptr noundef %0, i32 noundef %1, ptr noundef %2, ptr noundef %3, ptr noundef %4, ptr noundef %5, i32 noundef %6, i32 noundef %7, ptr noundef %8) #0 {
  %10 = alloca ptr, align 8
  %11 = alloca i32, align 4
  %12 = alloca ptr, align 8
  %13 = alloca ptr, align 8
  %14 = alloca ptr, align 8
  %15 = alloca ptr, align 8
  %16 = alloca i32, align 4
  %17 = alloca i32, align 4
  %18 = alloca ptr, align 8
  %19 = alloca ptr, align 8
  %20 = alloca ptr, align 8
  %21 = alloca i32, align 4
  %22 = alloca i32, align 4
  %23 = alloca ptr, align 8
  store ptr %0, ptr %10, align 8
  store i32 %1, ptr %11, align 4
  store ptr %2, ptr %12, align 8
  store ptr %3, ptr %13, align 8
  store ptr %4, ptr %14, align 8
  store ptr %5, ptr %15, align 8
  store i32 %6, ptr %16, align 4
  store i32 %7, ptr %17, align 4
  store ptr %8, ptr %18, align 8
  %24 = load ptr, ptr %13, align 8
  %25 = load i32, ptr %16, align 4
  %26 = load ptr, ptr %10, align 8
  %27 = load i32, ptr %11, align 4
  %28 = call ptr @proto_tree_add_string(ptr noundef %24, i32 noundef %25, ptr noundef %26, i32 noundef %27, i32 noundef 4, ptr noundef @.str.755)
  store ptr %28, ptr %19, align 8
  %29 = load ptr, ptr %19, align 8
  %30 = load i32, ptr @ett_RELSTR_ARRAY, align 4
  %31 = call ptr @proto_item_add_subtree(ptr noundef %29, i32 noundef %30)
  store ptr %31, ptr %20, align 8
  %32 = load ptr, ptr %10, align 8
  %33 = load i32, ptr %11, align 4
  %34 = load ptr, ptr %12, align 8
  %35 = load ptr, ptr %20, align 8
  %36 = load ptr, ptr %14, align 8
  %37 = load ptr, ptr %15, align 8
  %38 = load i32, ptr @hf_offset, align 4
  %39 = call i32 @dissect_ndr_uint32(ptr noundef %32, i32 noundef %33, ptr noundef %34, ptr noundef %35, ptr noundef %36, ptr noundef %37, i32 noundef %38, ptr noundef %21)
  store i32 %39, ptr %11, align 4
  %40 = load i32, ptr %21, align 4
  %41 = load i32, ptr %17, align 4
  %42 = add i32 %40, %41
  store i32 %42, ptr %22, align 4
  %43 = load i32, ptr %21, align 4
  %44 = icmp ne i32 %43, 0
  br i1 %44, label %45, label %53

45:                                               ; preds = %9
  %46 = load ptr, ptr %10, align 8
  %47 = load i32, ptr %22, align 4
  %48 = load ptr, ptr %12, align 8
  %49 = load ptr, ptr %20, align 8
  %50 = load ptr, ptr %15, align 8
  %51 = load i32, ptr @hf_relative_string, align 4
  %52 = call i32 @dissect_spoolss_uint16uni(ptr noundef %46, i32 noundef %47, ptr noundef %48, ptr noundef %49, ptr noundef %50, ptr noundef %23, i32 noundef %51)
  br label %58

53:                                               ; preds = %9
  %54 = load ptr, ptr %12, align 8
  %55 = getelementptr inbounds %struct._packet_info, ptr %54, i32 0, i32 50
  %56 = load ptr, ptr %55, align 8
  %57 = call noalias ptr @wmem_strdup(ptr noundef %56, ptr noundef @.str.1222)
  store ptr %57, ptr %23, align 8
  br label %58

58:                                               ; preds = %53, %45
  %59 = load ptr, ptr %19, align 8
  %60 = load ptr, ptr %23, align 8
  call void (ptr, ptr, ...) @proto_item_append_text(ptr noundef %59, ptr noundef @.str.1223, ptr noundef %60)
  %61 = load ptr, ptr %18, align 8
  %62 = icmp ne ptr %61, null
  br i1 %62, label %63, label %66

63:                                               ; preds = %58
  %64 = load ptr, ptr %23, align 8
  %65 = load ptr, ptr %18, align 8
  store ptr %64, ptr %65, align 8
  br label %66

66:                                               ; preds = %63, %58
  %67 = load i32, ptr %11, align 4
  ret i32 %67
}