; Function Attrs: nounwind uwtable
define internal fastcc i32 @dissect_spoolss_relstrarray(ptr noundef %0, i32 noundef %1, ptr noundef %2, ptr noundef %3, ptr noundef %4, ptr noundef %5, i32 noundef %6, i32 noundef %7) unnamed_addr #0 {
  %9 = alloca i32, align 4
  %10 = tail call ptr @proto_tree_add_string(ptr noundef %3, i32 noundef %6, ptr noundef %0, i32 noundef %1, i32 noundef 4, ptr noundef nonnull @.str.755) #5
  %11 = load i32, ptr @ett_RELSTR_ARRAY, align 4
  %12 = tail call ptr @proto_item_add_subtree(ptr noundef %10, i32 noundef %11) #5
  %13 = load i32, ptr @hf_offset, align 4
  %14 = call i32 @dissect_ndr_uint32(ptr noundef %0, i32 noundef %1, ptr noundef %2, ptr noundef %12, ptr noundef %4, ptr noundef %5, i32 noundef %13, ptr noundef nonnull %9) #5
  %15 = load i32, ptr %9, align 4
  %.not = icmp eq i32 %15, 0
  br i1 %.not, label %33, label %16

16:                                               ; preds = %8
  %17 = add i32 %15, %7
  %18 = load i32, ptr @hf_relative_string, align 4
  %19 = srem i32 %17, 2
  %.not.i = icmp eq i32 %19, 0
  %reass.sub.i = add i32 %17, 2
  %20 = sub i32 %reass.sub.i, %19
  %.026.i = select i1 %.not.i, i32 %17, i32 %20
  %21 = call i32 @tvb_reported_length_remaining(ptr noundef %0, i32 noundef %.026.i) #5
  %22 = icmp slt i32 %21, 1
  %23 = getelementptr inbounds nuw i8, ptr %2, i64 408
  %24 = load ptr, ptr %23, align 8
  br i1 %22, label %25, label %27

25:                                               ; preds = %16
  %26 = call noalias ptr @wmem_strdup(ptr noundef %24, ptr noundef nonnull @.str.755) #5
  br label %dissect_spoolss_uint16uni.exit

27:                                               ; preds = %16
  %28 = call ptr @tvb_get_string_enc(ptr noundef %24, ptr noundef %0, i32 noundef %.026.i, i32 noundef %21, i32 noundef -2147483644) #5
  %29 = call i64 @strlen(ptr noundef nonnull dereferenceable(1) %28) #6
  %30 = trunc i64 %29 to i32
  %31 = shl i32 %30, 1
  %32 = call ptr @proto_tree_add_string(ptr noundef %12, i32 noundef %18, ptr noundef %0, i32 noundef %.026.i, i32 noundef %31, ptr noundef nonnull %28) #5
  br label %dissect_spoolss_uint16uni.exit

33:                                               ; preds = %8
  %34 = getelementptr inbounds nuw i8, ptr %2, i64 408
  %35 = load ptr, ptr %34, align 8
  %36 = call noalias ptr @wmem_strdup(ptr noundef %35, ptr noundef nonnull @.str.1222) #5
  br label %dissect_spoolss_uint16uni.exit

dissect_spoolss_uint16uni.exit:                   ; preds = %27, %25, %33
  %.1 = phi ptr [ %36, %33 ], [ %26, %25 ], [ %28, %27 ]
  call void (ptr, ptr, ...) @proto_item_append_text(ptr noundef %10, ptr noundef nonnull @.str.1223, ptr noundef %.1) #5
  ret i32 %14
}